; Function Attrs: mustprogress nounwind uwtable
define void @pkpy_delete_repl(ptr noundef %0) local_unnamed_addr #3 {
  %2 = icmp eq ptr %0, null
  br i1 %2, label %5, label %3

3:                                                ; preds = %1
  %4 = getelementptr inbounds nuw i8, ptr %0, i64 8
  tail call void @_ZNSt7__cxx1112basic_stringIcSt11char_traitsIcESaIcEED1Ev(ptr noundef nonnull align 8 dereferenceable(32) %4) #32
  tail call void @_ZdlPvm(ptr noundef nonnull %0, i64 noundef 48) #31
  br label %5

5:                                                ; preds = %3, %1
  ret void
}